; Function Attrs: mustprogress uwtable
define hidden void @_ZN2cv17QRCodeDecoderImpl11decodeKanjiERNSt7__cxx1112basic_stringIcSt11char_traitsIcESaIcEEE(ptr noundef nonnull align 8 dereferenceable(72) %0, ptr noundef nonnull align 8 dereferenceable(32) %1) local_unnamed_addr #4 align 2 personality ptr @__gxx_personality_v0 {
  %3 = getelementptr inbounds nuw i8, ptr %0, i64 32
  %4 = getelementptr inbounds nuw i8, ptr %0, i64 24
  %5 = load i32, ptr %4, align 8, !tbaa !229
  %6 = icmp slt i32 %5, 10
  %7 = icmp slt i32 %5, 27
  %8 = select i1 %7, i32 10, i32 12
  %9 = select i1 %6, i32 8, i32 %8
  %10 = tail call noundef i32 @_ZN2cv17QRCodeDecoderImpl9Bitstream4nextEi(ptr noundef nonnull align 8 dereferenceable(40) %3, i32 noundef %9)
  %11 = icmp sgt i32 %10, 0
  br i1 %11, label %.lr.ph, label %._crit_edge

.lr.ph:                                           ; preds = %2
  %12 = getelementptr inbounds nuw i8, ptr %1, i64 8
  %13 = getelementptr inbounds nuw i8, ptr %1, i64 16
  br label %14

._crit_edge:                                      ; preds = %_ZNSt7__cxx1112basic_stringIcSt11char_traitsIcESaIcEEpLEc.exit26, %2
  ret void

14:                                               ; preds = %.lr.ph, %_ZNSt7__cxx1112basic_stringIcSt11char_traitsIcESaIcEEpLEc.exit26
  %.02127 = phi i32 [ 0, %.lr.ph ], [ %57, %_ZNSt7__cxx1112basic_stringIcSt11char_traitsIcESaIcEEpLEc.exit26 ]
  %15 = tail call noundef i32 @_ZN2cv17QRCodeDecoderImpl9Bitstream4nextEi(ptr noundef nonnull align 8 dereferenceable(40) %3, i32 noundef 13)
  %16 = sdiv i32 %15, 192
  %.neg = mul nsw i32 %16, -192
  %17 = add i32 %.neg, %15
  %18 = shl i32 %16, 8
  %19 = add nsw i32 %17, %18
  %or.cond = icmp ult i32 %19, 7869
  br i1 %or.cond, label %20, label %22

20:                                               ; preds = %14
  %21 = add nuw nsw i32 %19, 33088
  br label %25

22:                                               ; preds = %14
  %23 = add i32 %19, -7936
  %or.cond3 = icmp ult i32 %23, 2944
  %24 = add nuw nsw i32 %19, 49472
  %spec.select = select i1 %or.cond3, i32 %24, i32 %19
  br label %25

25:                                               ; preds = %22, %20
  %.0 = phi i32 [ %21, %20 ], [ %spec.select, %22 ]
  %26 = lshr i32 %.0, 8
  %27 = trunc i32 %26 to i8
  %28 = load i64, ptr %12, align 8, !tbaa !21
  %29 = add i64 %28, 1
  %30 = load ptr, ptr %1, align 8, !tbaa !15
  %31 = icmp eq ptr %30, %13
  br i1 %31, label %32, label %_ZNKSt7__cxx1112basic_stringIcSt11char_traitsIcESaIcEE8capacityEv.exit.i.i

32:                                               ; preds = %25
  %33 = icmp ult i64 %28, 16
  tail call void @llvm.assume(i1 %33)
  br label %_ZNKSt7__cxx1112basic_stringIcSt11char_traitsIcESaIcEE8capacityEv.exit.i.i

_ZNKSt7__cxx1112basic_stringIcSt11char_traitsIcESaIcEE8capacityEv.exit.i.i: ; preds = %32, %25
  %34 = load i64, ptr %13, align 8
  %35 = select i1 %31, i64 15, i64 %34
  %36 = icmp ugt i64 %29, %35
  br i1 %36, label %37, label %_ZNSt7__cxx1112basic_stringIcSt11char_traitsIcESaIcEEpLEc.exit

37:                                               ; preds = %_ZNKSt7__cxx1112basic_stringIcSt11char_traitsIcESaIcEE8capacityEv.exit.i.i
  tail call void @_ZNSt7__cxx1112basic_stringIcSt11char_traitsIcESaIcEE9_M_mutateEmmPKcm(ptr noundef nonnull align 8 dereferenceable(32) %1, i64 noundef %28, i64 noundef 0, ptr noundef null, i64 noundef 1)
  %.pre.i.i = load ptr, ptr %1, align 8, !tbaa !15
  br label %_ZNSt7__cxx1112basic_stringIcSt11char_traitsIcESaIcEEpLEc.exit

_ZNSt7__cxx1112basic_stringIcSt11char_traitsIcESaIcEEpLEc.exit: ; preds = %_ZNKSt7__cxx1112basic_stringIcSt11char_traitsIcESaIcEE8capacityEv.exit.i.i, %37
  %38 = phi ptr [ %.pre.i.i, %37 ], [ %30, %_ZNKSt7__cxx1112basic_stringIcSt11char_traitsIcESaIcEE8capacityEv.exit.i.i ]
  %39 = getelementptr inbounds nuw i8, ptr %38, i64 %28
  store i8 %27, ptr %39, align 1, !tbaa !57
  store i64 %29, ptr %12, align 8, !tbaa !21
  %40 = load ptr, ptr %1, align 8, !tbaa !15
  %41 = getelementptr inbounds nuw i8, ptr %40, i64 %29
  store i8 0, ptr %41, align 1, !tbaa !57
  %42 = trunc i32 %.0 to i8
  %43 = load i64, ptr %12, align 8, !tbaa !21
  %44 = add i64 %43, 1
  %45 = load ptr, ptr %1, align 8, !tbaa !15
  %46 = icmp eq ptr %45, %13
  br i1 %46, label %47, label %_ZNKSt7__cxx1112basic_stringIcSt11char_traitsIcESaIcEE8capacityEv.exit.i.i24

47:                                               ; preds = %_ZNSt7__cxx1112basic_stringIcSt11char_traitsIcESaIcEEpLEc.exit
  %48 = icmp ult i64 %43, 16
  tail call void @llvm.assume(i1 %48)
  br label %_ZNKSt7__cxx1112basic_stringIcSt11char_traitsIcESaIcEE8capacityEv.exit.i.i24

_ZNKSt7__cxx1112basic_stringIcSt11char_traitsIcESaIcEE8capacityEv.exit.i.i24: ; preds = %47, %_ZNSt7__cxx1112basic_stringIcSt11char_traitsIcESaIcEEpLEc.exit
  %49 = load i64, ptr %13, align 8
  %50 = select i1 %46, i64 15, i64 %49
  %51 = icmp ugt i64 %44, %50
  br i1 %51, label %52, label %_ZNSt7__cxx1112basic_stringIcSt11char_traitsIcESaIcEEpLEc.exit26

52:                                               ; preds = %_ZNKSt7__cxx1112basic_stringIcSt11char_traitsIcESaIcEE8capacityEv.exit.i.i24
  tail call void @_ZNSt7__cxx1112basic_stringIcSt11char_traitsIcESaIcEE9_M_mutateEmmPKcm(ptr noundef nonnull align 8 dereferenceable(32) %1, i64 noundef %43, i64 noundef 0, ptr noundef null, i64 noundef 1)
  %.pre.i.i25 = load ptr, ptr %1, align 8, !tbaa !15
  br label %_ZNSt7__cxx1112basic_stringIcSt11char_traitsIcESaIcEEpLEc.exit26

_ZNSt7__cxx1112basic_stringIcSt11char_traitsIcESaIcEEpLEc.exit26: ; preds = %_ZNKSt7__cxx1112basic_stringIcSt11char_traitsIcESaIcEE8capacityEv.exit.i.i24, %52
  %53 = phi ptr [ %.pre.i.i25, %52 ], [ %45, %_ZNKSt7__cxx1112basic_stringIcSt11char_traitsIcESaIcEE8capacityEv.exit.i.i24 ]
  %54 = getelementptr inbounds nuw i8, ptr %53, i64 %43
  store i8 %42, ptr %54, align 1, !tbaa !57
  store i64 %44, ptr %12, align 8, !tbaa !21
  %55 = load ptr, ptr %1, align 8, !tbaa !15
  %56 = getelementptr inbounds nuw i8, ptr %55, i64 %44
  store i8 0, ptr %56, align 1, !tbaa !57
  %57 = add nuw nsw i32 %.02127, 1
  %exitcond.not = icmp eq i32 %57, %10
  br i1 %exitcond.not, label %._crit_edge, label %14, !llvm.loop !336
}